; Function Attrs: nounwind uwtable
define dso_local i64 @hashtidextended(ptr noundef readonly captures(none) %0) local_unnamed_addr #0 {
  %2 = getelementptr inbounds nuw i8, ptr %0, i64 32
  %3 = load i64, ptr %2, align 8
  %4 = inttoptr i64 %3 to ptr
  %5 = getelementptr inbounds nuw i8, ptr %0, i64 48
  %6 = load i64, ptr %5, align 8
  %7 = tail call i64 @hash_bytes_extended(ptr noundef %4, i32 noundef 6, i64 noundef %6) #11
  ret i64 %7
}